CCS PCM C Compiler, Version 4.084, 34284               01-juin-20 13:34

               Filename: C:\Users\Mahdi\Desktop\TP_Domo\main.lst

               ROM used: 692 words (8%)
                         Largest free fragment is 2048
               RAM used: 25 (7%) at main() level
                         50 (14%) worst case
               Stack:    2 locations

*
0000:  MOVLW  00
0001:  MOVWF  0A
0002:  GOTO   1DB
0003:  NOP
.................... #include "16f877a.h" 
.................... //////// Standard Header file for the PIC16F877A device //////////////// 
.................... #device PIC16F877A 
.................... #list 
....................  
.................... #device adc=8 
....................  
.................... #FUSES NOWDT                    //No Watch Dog Timer 
.................... #FUSES HS                       //High speed Osc (> 4mhz for PCM/PCH) (>10mhz for PCD) 
.................... #FUSES NOPUT                    //No Power Up Timer 
.................... #FUSES NOPROTECT                //Code not protected from reading 
.................... #FUSES NODEBUG                  //No Debug mode for ICD 
.................... #FUSES NOBROWNOUT               //No brownout reset 
.................... #FUSES NOLVP                    //No low voltage prgming, B3(PIC16) or B5(PIC18) used for I/O 
.................... #FUSES NOCPD                    //No EE protection 
.................... #FUSES NOWRT                    //Program memory not write protected 
....................  
.................... #use delay(clock=20000000) 
*
0004:  MOVLW  33
0005:  MOVWF  04
0006:  BCF    03.7
0007:  MOVF   00,W
0008:  BTFSC  03.2
0009:  GOTO   017
000A:  MOVLW  06
000B:  MOVWF  78
000C:  CLRF   77
000D:  DECFSZ 77,F
000E:  GOTO   00D
000F:  DECFSZ 78,F
0010:  GOTO   00C
0011:  MOVLW  7B
0012:  MOVWF  77
0013:  DECFSZ 77,F
0014:  GOTO   013
0015:  DECFSZ 00,F
0016:  GOTO   00A
0017:  RETLW  00
.................... #use rs232(baud=9600,parity=N,xmit=PIN_C6,rcv=PIN_C7,bits=8) 
....................  
.................... int valeur; 
.................... float tension; 
.................... float quantum = 0.0195; 
*
01EE:  MOVLW  79
01EF:  BCF    03.5
01F0:  MOVWF  25
01F1:  MOVLW  1F
01F2:  MOVWF  26
01F3:  MOVLW  BE
01F4:  MOVWF  27
01F5:  MOVLW  77
01F6:  MOVWF  28
.................... float pente = 1 / 0.01; // 0.01 = 0.010 mV/°C 
01F7:  MOVLW  85
01F8:  MOVWF  29
01F9:  MOVLW  48
01FA:  MOVWF  2A
01FB:  CLRF   2B
01FC:  CLRF   2C
.................... float temperature; 
....................  
....................  
....................  
.................... void main() 
.................... { 
*
01DB:  CLRF   04
01DC:  BCF    03.7
01DD:  MOVLW  1F
01DE:  ANDWF  03,F
01DF:  MOVLW  81
01E0:  BSF    03.5
01E1:  MOVWF  19
01E2:  MOVLW  A6
01E3:  MOVWF  18
01E4:  MOVLW  90
01E5:  BCF    03.5
01E6:  MOVWF  18
01E7:  BSF    03.5
01E8:  BSF    1F.0
01E9:  BSF    1F.1
01EA:  BSF    1F.2
01EB:  BCF    1F.3
01EC:  MOVLW  07
01ED:  MOVWF  1C
....................  
....................    setup_adc_ports(AN0); 
*
01FF:  BSF    03.5
0200:  BCF    1F.0
0201:  BSF    1F.1
0202:  BSF    1F.2
0203:  BSF    1F.3
....................    setup_adc(ADC_CLOCK_DIV_2); 
0204:  BCF    1F.6
0205:  BCF    03.5
0206:  BCF    1F.6
0207:  BCF    1F.7
0208:  BSF    03.5
0209:  BCF    1F.7
020A:  BCF    03.5
020B:  BSF    1F.0
....................    setup_psp(PSP_DISABLED); 
020C:  BSF    03.5
020D:  BCF    09.4
....................    setup_spi(SPI_SS_DISABLED); 
020E:  BCF    03.5
020F:  BCF    14.5
0210:  BCF    31.5
0211:  MOVF   31,W
0212:  BSF    03.5
0213:  MOVWF  07
0214:  BCF    03.5
0215:  BSF    31.4
0216:  MOVF   31,W
0217:  BSF    03.5
0218:  MOVWF  07
0219:  BCF    03.5
021A:  BCF    31.3
021B:  MOVF   31,W
021C:  BSF    03.5
021D:  MOVWF  07
021E:  MOVLW  01
021F:  BCF    03.5
0220:  MOVWF  14
0221:  MOVLW  00
0222:  BSF    03.5
0223:  MOVWF  14
....................    setup_timer_0(RTCC_INTERNAL|RTCC_DIV_1); 
0224:  MOVF   01,W
0225:  ANDLW  C7
0226:  IORLW  08
0227:  MOVWF  01
....................    setup_timer_1(T1_DISABLED); 
0228:  BCF    03.5
0229:  CLRF   10
....................    setup_timer_2(T2_DISABLED,0,1); 
022A:  MOVLW  00
022B:  MOVWF  78
022C:  MOVWF  12
022D:  MOVLW  00
022E:  BSF    03.5
022F:  MOVWF  12
....................    setup_comparator(NC_NC_NC_NC); 
0230:  MOVLW  07
0231:  MOVWF  1C
0232:  MOVF   05,W
0233:  MOVWF  05
0234:  MOVLW  10
0235:  MOVWF  77
0236:  DECFSZ 77,F
0237:  GOTO   236
0238:  NOP
0239:  MOVF   1C,W
023A:  BCF    03.5
023B:  BCF    0D.6
....................    setup_vref(FALSE); 
023C:  BSF    03.5
023D:  CLRF   1D
....................  
....................    // TODO: USER CODE!! 
....................    while(true) 
....................    { 
....................       output_bit(PIN_D0, 0); 
023E:  BCF    03.5
023F:  BCF    08.0
0240:  BSF    03.5
0241:  BCF    08.0
....................       delay_ms(1000); 
0242:  MOVLW  04
0243:  BCF    03.5
0244:  MOVWF  32
0245:  MOVLW  FA
0246:  MOVWF  33
0247:  CALL   004
0248:  DECFSZ 32,F
0249:  GOTO   245
....................       output_bit(PIN_D0, 1); 
024A:  BSF    08.0
024B:  BSF    03.5
024C:  BCF    08.0
....................       delay_ms(1000); 
024D:  MOVLW  04
024E:  BCF    03.5
024F:  MOVWF  32
0250:  MOVLW  FA
0251:  MOVWF  33
0252:  CALL   004
0253:  DECFSZ 32,F
0254:  GOTO   250
....................        
....................       set_adc_channel(0); 
0255:  MOVLW  00
0256:  MOVWF  78
0257:  MOVF   1F,W
0258:  ANDLW  C7
0259:  IORWF  78,W
025A:  MOVWF  1F
....................       valeur = read_adc(); 
025B:  BSF    1F.2
025C:  BTFSC  1F.2
025D:  GOTO   25C
025E:  MOVF   1E,W
025F:  MOVWF  20
....................       //printf("la valeur est %u\r\n", valeur); 
....................       delay_us(10); 
0260:  MOVLW  10
0261:  MOVWF  77
0262:  DECFSZ 77,F
0263:  GOTO   262
0264:  NOP
....................        
....................       tension = valeur * quantum; 
0265:  CLRF   33
0266:  MOVF   20,W
0267:  MOVWF  32
0268:  GOTO   018
0269:  MOVF   7A,W
026A:  MOVWF  42
026B:  MOVF   79,W
026C:  MOVWF  41
026D:  MOVF   78,W
026E:  MOVWF  40
026F:  MOVF   77,W
0270:  MOVWF  3F
0271:  MOVF   28,W
0272:  MOVWF  46
0273:  MOVF   27,W
0274:  MOVWF  45
0275:  MOVF   26,W
0276:  MOVWF  44
0277:  MOVF   25,W
0278:  MOVWF  43
0279:  CALL   037
027A:  MOVF   7A,W
027B:  MOVWF  24
027C:  MOVF   79,W
027D:  MOVWF  23
027E:  MOVF   78,W
027F:  MOVWF  22
0280:  MOVF   77,W
0281:  MOVWF  21
....................       //printf("la tension est %2.2f V\r\n", tension); 
....................       delay_us(10); 
0282:  MOVLW  10
0283:  MOVWF  77
0284:  DECFSZ 77,F
0285:  GOTO   284
0286:  NOP
....................        
....................       temperature = tension * pente; 
0287:  MOVF   24,W
0288:  MOVWF  42
0289:  MOVF   23,W
028A:  MOVWF  41
028B:  MOVF   22,W
028C:  MOVWF  40
028D:  MOVF   21,W
028E:  MOVWF  3F
028F:  MOVF   2C,W
0290:  MOVWF  46
0291:  MOVF   2B,W
0292:  MOVWF  45
0293:  MOVF   2A,W
0294:  MOVWF  44
0295:  MOVF   29,W
0296:  MOVWF  43
0297:  CALL   037
0298:  MOVF   7A,W
0299:  MOVWF  30
029A:  MOVF   79,W
029B:  MOVWF  2F
029C:  MOVF   78,W
029D:  MOVWF  2E
029E:  MOVF   77,W
029F:  MOVWF  2D
....................       printf("%2.2f", temperature); 
02A0:  MOVLW  89
02A1:  MOVWF  04
02A2:  MOVF   30,W
02A3:  MOVWF  35
02A4:  MOVF   2F,W
02A5:  MOVWF  34
02A6:  MOVF   2E,W
02A7:  MOVWF  33
02A8:  MOVF   2D,W
02A9:  MOVWF  32
02AA:  MOVLW  02
02AB:  MOVWF  36
02AC:  GOTO   0EE
....................       delay_us(10); 
02AD:  MOVLW  10
02AE:  MOVWF  77
02AF:  DECFSZ 77,F
02B0:  GOTO   2AF
02B1:  NOP
....................        
....................  
....................    } 
02B2:  GOTO   23F
....................  
.................... } 
02B3:  SLEEP

Configuration Fuses:
   Word  1: 3F3A   HS NOWDT NOPUT NODEBUG NOPROTECT NOBROWNOUT NOLVP NOCPD NOWRT
